Certificate:
    Data:
        Version: 3 (0x2)
        Serial Number: 2 (0x2)
        Signature Algorithm: sha256WithRSAEncryption
        Issuer: C=JP, ST=Tokyo, L=Bunkyo, O=ZT-IOT, OU=Ueno, CN=zt-iot.jp/emailAddress=seiga.ueno@gmail.com
        Validity
            Not Before: Dec 13 03:53:17 2022 GMT
            Not After : Dec 13 03:53:17 2023 GMT
        Subject: C=JP, ST=Tokyo, L=Chiyoda, O=ZT-IOT, OU=Ueno, CN=optee-server.192.168.12.24.nip.io
        Subject Public Key Info:
            Public Key Algorithm: rsaEncryption
                RSA Public-Key: (2048 bit)
                Modulus:
                    00:b7:13:7c:64:16:4c:93:9f:ca:7b:e7:42:42:45:
                    59:11:2e:e5:aa:c0:8d:2c:1b:94:1b:b0:a3:56:91:
                    d6:4d:0e:d3:80:8c:14:60:d1:44:d7:3e:8d:7e:d5:
                    1a:3f:2e:06:76:81:ea:d3:71:a9:f9:3c:15:fd:ae:
                    a4:a9:60:b0:1a:cf:7b:8d:72:05:b7:e7:d9:a2:0f:
                    34:01:9b:3f:89:62:c7:47:63:f6:e2:d1:8c:87:9a:
                    9a:7f:7b:e9:2f:c1:a2:70:0a:44:2f:45:29:77:30:
                    9d:f7:f1:bc:c9:ba:6c:98:42:2e:19:4d:91:fb:48:
                    39:f2:5a:21:19:28:90:4f:4e:3a:40:78:8f:2b:29:
                    e3:13:95:50:9a:45:da:38:9b:88:e0:27:9b:34:5c:
                    a1:ac:b2:06:e0:d1:55:fc:ba:9f:12:d8:1b:69:8c:
                    d6:0d:51:7d:1b:47:1b:2a:1a:a6:08:c1:a5:fe:a2:
                    bd:51:5f:ea:d9:ff:f4:6f:94:14:f7:a7:25:5b:66:
                    0c:8c:3d:1b:3e:c3:9e:3f:f6:df:52:05:03:77:a9:
                    fe:7f:45:cd:c8:3c:d1:ae:1c:49:f4:7d:fc:65:4b:
                    40:2e:82:36:8e:0a:85:63:a0:4f:e5:02:11:c9:20:
                    d2:a0:d4:33:3b:7b:10:61:0d:17:8f:a8:30:43:47:
                    fa:8b
                Exponent: 65537 (0x10001)
        X509v3 extensions:
            X509v3 Basic Constraints: 
                CA:FALSE
            Netscape Comment: 
                OpenSSL Generated Certificate
            X509v3 Subject Key Identifier: 
                A0:0F:E7:27:C3:07:FB:F8:A2:43:80:CF:B7:F0:9F:F6:E4:E7:14:5E
            X509v3 Authority Key Identifier: 
                keyid:24:EB:1B:54:9D:F5:3C:47:A8:57:28:76:3A:5F:25:87:67:BB:4E:7A

    Signature Algorithm: sha256WithRSAEncryption
         84:61:51:f9:0a:64:c5:cf:bf:e6:7a:74:65:34:ff:82:ee:91:
         90:fa:d8:e2:1e:ee:5f:db:ec:d4:9b:6d:c9:c6:f8:ef:05:44:
         b4:c1:15:43:9c:65:b8:93:60:9f:f5:c7:44:e4:9d:51:8d:87:
         d1:11:56:6d:38:da:4e:06:0c:21:5c:4a:56:c3:65:6d:50:f6:
         bf:90:b7:32:1c:52:a4:fc:a1:bf:59:f5:07:89:e3:61:32:40:
         4f:0c:37:8e:c3:bb:59:78:d4:04:8f:73:e3:db:e3:1f:26:10:
         04:2e:e7:66:42:7e:27:12:d7:0b:0a:32:18:03:dc:be:b2:67:
         fe:9a:1d:5b:96:b8:28:26:3b:bd:91:5f:a2:1f:04:7e:cc:1d:
         a3:51:d3:f7:ca:e2:79:b0:3e:f7:af:7f:11:d4:ff:49:72:6e:
         16:33:df:27:91:6b:2b:40:47:4a:12:8b:f9:f7:f4:5e:f9:b8:
         e7:38:64:83:57:d3:79:51:12:b4:8e:57:3c:3f:1f:49:7c:84:
         b2:c8:ab:31:ae:43:d2:75:c0:80:2e:84:c0:6b:a3:49:50:70:
         52:12:ab:30:96:d0:e5:41:bd:59:2d:5e:c6:af:41:4f:ac:0a:
         e9:e0:3b:e4:be:79:c9:66:24:e6:b4:5a:9d:9d:5c:71:0f:40:
         4f:ac:24:2e
-----BEGIN CERTIFICATE-----
MIID+TCCAuGgAwIBAgIBAjANBgkqhkiG9w0BAQsFADCBhzELMAkGA1UEBhMCSlAx
DjAMBgNVBAgMBVRva3lvMQ8wDQYDVQQHDAZCdW5reW8xDzANBgNVBAoMBlpULUlP
VDENMAsGA1UECwwEVWVubzESMBAGA1UEAwwJenQtaW90LmpwMSMwIQYJKoZIhvcN
AQkBFhRzZWlnYS51ZW5vQGdtYWlsLmNvbTAeFw0yMjEyMTMwMzUzMTdaFw0yMzEy
MTMwMzUzMTdaMHsxCzAJBgNVBAYTAkpQMQ4wDAYDVQQIDAVUb2t5bzEQMA4GA1UE
BwwHQ2hpeW9kYTEPMA0GA1UECgwGWlQtSU9UMQ0wCwYDVQQLDARVZW5vMSowKAYD
VQQDDCFvcHRlZS1zZXJ2ZXIuMTkyLjE2OC4xMi4yNC5uaXAuaW8wggEiMA0GCSqG
SIb3DQEBAQUAA4IBDwAwggEKAoIBAQC3E3xkFkyTn8p750JCRVkRLuWqwI0sG5Qb
sKNWkdZNDtOAjBRg0UTXPo1+1Ro/LgZ2gerTcan5PBX9rqSpYLAaz3uNcgW359mi
DzQBmz+JYsdHY/bi0YyHmpp/e+kvwaJwCkQvRSl3MJ338bzJumyYQi4ZTZH7SDny
WiEZKJBPTjpAeI8rKeMTlVCaRdo4m4jgJ5s0XKGssgbg0VX8up8S2BtpjNYNUX0b
RxsqGqYIwaX+or1RX+rZ//RvlBT3pyVbZgyMPRs+w54/9t9SBQN3qf5/Rc3IPNGu
HEn0ffxlS0AugjaOCoVjoE/lAhHJINKg1DM7exBhDRePqDBDR/qLAgMBAAGjezB5
MAkGA1UdEwQCMAAwLAYJYIZIAYb4QgENBB8WHU9wZW5TU0wgR2VuZXJhdGVkIENl
cnRpZmljYXRlMB0GA1UdDgQWBBSgD+cnwwf7+KJDgM+38J/25OcUXjAfBgNVHSME
GDAWgBQk6xtUnfU8R6hXKHY6XyWHZ7tOejANBgkqhkiG9w0BAQsFAAOCAQEAhGFR
+Qpkxc+/5np0ZTT/gu6RkPrY4h7uX9vs1Jttycb47wVEtMEVQ5xluJNgn/XHROSd
UY2H0RFWbTjaTgYMIVxKVsNlbVD2v5C3MhxSpPyhv1n1B4njYTJATww3jsO7WXjU
BI9z49vjHyYQBC7nZkJ+JxLXCwoyGAPcvrJn/podW5a4KCY7vZFfoh8Efswdo1HT
98riebA+969/EdT/SXJuFjPfJ5FrK0BHShKL+ff0Xvm45zhkg1fTeVEStI5XPD8f
SXyEssirMa5D0nXAgC6EwGujSVBwUhKrMJbQ5UG9WS1exq9BT6wK6eA75L55yWYk
5rRanZ1ccQ9AT6wkLg==
-----END CERTIFICATE-----
