Certificate:
    Data:
        Version: 3 (0x2)
        Serial Number: 1 (0x1)
        Signature Algorithm: sha256WithRSAEncryption
        Issuer: C=JP, ST=Tokyo, L=Bunkyo, O=ZT-IOT, OU=Ueno, CN=zt-iot.jp/emailAddress=seiga.ueno@gmail.com
        Validity
            Not Before: Dec 12 08:10:21 2022 GMT
            Not After : Dec 12 08:10:21 2023 GMT
        Subject: C=JP, O=192.168.12.24, CN=192.168.12.24
        Subject Public Key Info:
            Public Key Algorithm: rsaEncryption
                RSA Public-Key: (2048 bit)
                Modulus:
                    00:bc:07:e8:9f:51:0c:78:2b:1d:d6:20:3b:a6:02:
                    f0:f8:33:77:30:ed:3b:7a:a0:c7:23:07:70:8c:e7:
                    f5:85:5d:06:04:d8:a3:29:73:e5:19:23:0a:58:54:
                    3f:ec:e6:a8:8b:0c:11:f1:7e:83:30:57:69:c4:14:
                    be:0b:9a:f5:1b:a5:f0:4c:a2:fe:ef:d0:f7:01:4a:
                    66:e7:8a:5d:f6:4a:45:12:52:aa:10:24:f1:4d:05:
                    0d:ad:95:13:a2:9a:97:75:1f:e8:69:d9:4c:1f:3c:
                    e5:15:6d:59:6c:96:23:16:d4:57:eb:cf:48:de:54:
                    3d:8e:3a:eb:dd:a0:a4:47:72:f4:3a:a5:9d:9e:eb:
                    36:df:2f:65:39:94:13:cb:67:60:1d:61:f1:7f:b7:
                    87:33:a8:ed:cd:13:58:cc:61:72:05:f9:1e:e9:62:
                    56:78:9a:f6:7a:a8:a0:92:49:1c:1b:bc:18:e1:97:
                    cb:fd:e2:2d:08:d2:89:c6:69:86:6d:bc:f9:11:72:
                    13:05:f3:46:a3:53:dd:1a:c2:e3:17:53:d4:c1:aa:
                    2d:4c:e2:f6:8b:21:83:a3:cc:a5:85:2d:51:72:6e:
                    4a:03:cd:b9:1b:9c:28:af:cb:13:3b:7c:1d:63:a3:
                    2c:02:4c:c3:e1:62:46:ff:f6:32:46:9c:93:72:a5:
                    c5:a3
                Exponent: 65537 (0x10001)
        X509v3 extensions:
            X509v3 Basic Constraints: 
                CA:FALSE
            Netscape Comment: 
                OpenSSL Generated Certificate
            X509v3 Subject Key Identifier: 
                E4:85:46:77:A2:F9:F4:F7:EC:FF:29:2D:3D:75:72:93:E6:26:CB:0A
            X509v3 Authority Key Identifier: 
                keyid:24:EB:1B:54:9D:F5:3C:47:A8:57:28:76:3A:5F:25:87:67:BB:4E:7A

    Signature Algorithm: sha256WithRSAEncryption
         68:bd:68:37:20:08:d1:1a:79:9c:9e:f9:35:d1:7a:34:e6:42:
         8e:12:02:a9:17:d0:64:39:fd:30:12:44:85:b2:3c:d7:b3:fd:
         45:ec:1e:53:bc:bf:5a:20:02:68:b6:6e:f2:9f:fd:ee:72:5e:
         80:a5:b3:61:6f:ae:68:30:57:b5:f4:9c:b6:54:87:68:2e:93:
         f0:43:2d:cf:c4:23:57:00:bc:f7:1c:34:3f:e6:1e:0e:d2:1f:
         99:f9:53:24:c0:95:94:56:7d:98:c2:65:da:10:74:d4:e1:59:
         c1:4c:fd:e1:b9:6b:34:13:00:c2:f3:c1:71:9c:ab:cd:72:03:
         fb:ac:b4:83:34:19:1d:09:19:5b:7a:4e:f8:a5:ec:2a:5e:29:
         dc:9f:f5:c3:4c:62:e0:bb:b3:2b:5d:50:83:23:86:ea:6b:78:
         e9:11:4c:62:80:c9:31:44:aa:83:90:07:a5:13:01:6e:72:60:
         1c:22:6b:ae:4d:04:dd:fa:a4:c1:bd:93:72:65:9f:87:5a:7e:
         66:08:d9:30:24:24:56:b1:3f:79:a0:84:cb:56:fc:2d:04:65:
         6d:06:45:10:0d:0a:86:06:8a:1c:25:63:dd:59:66:e1:8a:69:
         42:89:9c:7a:9f:aa:d6:7c:17:3f:27:c3:aa:d2:c2:34:51:b1:
         a1:58:8a:16
-----BEGIN CERTIFICATE-----
MIIDuzCCAqOgAwIBAgIBATANBgkqhkiG9w0BAQsFADCBhzELMAkGA1UEBhMCSlAx
DjAMBgNVBAgMBVRva3lvMQ8wDQYDVQQHDAZCdW5reW8xDzANBgNVBAoMBlpULUlP
VDENMAsGA1UECwwEVWVubzESMBAGA1UEAwwJenQtaW90LmpwMSMwIQYJKoZIhvcN
AQkBFhRzZWlnYS51ZW5vQGdtYWlsLmNvbTAeFw0yMjEyMTIwODEwMjFaFw0yMzEy
MTIwODEwMjFaMD0xCzAJBgNVBAYTAkpQMRYwFAYDVQQKDA0xOTIuMTY4LjEyLjI0
MRYwFAYDVQQDDA0xOTIuMTY4LjEyLjI0MIIBIjANBgkqhkiG9w0BAQEFAAOCAQ8A
MIIBCgKCAQEAvAfon1EMeCsd1iA7pgLw+DN3MO07eqDHIwdwjOf1hV0GBNijKXPl
GSMKWFQ/7OaoiwwR8X6DMFdpxBS+C5r1G6XwTKL+79D3AUpm54pd9kpFElKqECTx
TQUNrZUTopqXdR/oadlMHzzlFW1ZbJYjFtRX689I3lQ9jjrr3aCkR3L0OqWdnus2
3y9lOZQTy2dgHWHxf7eHM6jtzRNYzGFyBfke6WJWeJr2eqigkkkcG7wY4ZfL/eIt
CNKJxmmGbbz5EXITBfNGo1PdGsLjF1PUwaotTOL2iyGDo8ylhS1Rcm5KA825G5wo
r8sTO3wdY6MsAkzD4WJG//YyRpyTcqXFowIDAQABo3sweTAJBgNVHRMEAjAAMCwG
CWCGSAGG+EIBDQQfFh1PcGVuU1NMIEdlbmVyYXRlZCBDZXJ0aWZpY2F0ZTAdBgNV
HQ4EFgQU5IVGd6L59Pfs/yktPXVyk+YmywowHwYDVR0jBBgwFoAUJOsbVJ31PEeo
Vyh2Ol8lh2e7TnowDQYJKoZIhvcNAQELBQADggEBAGi9aDcgCNEaeZye+TXRejTm
Qo4SAqkX0GQ5/TASRIWyPNez/UXsHlO8v1ogAmi2bvKf/e5yXoCls2FvrmgwV7X0
nLZUh2guk/BDLc/EI1cAvPccND/mHg7SH5n5UyTAlZRWfZjCZdoQdNThWcFM/eG5
azQTAMLzwXGcq81yA/ustIM0GR0JGVt6Tvil7CpeKdyf9cNMYuC7sytdUIMjhupr
eOkRTGKAyTFEqoOQB6UTAW5yYBwia65NBN36pMG9k3Jln4dafmYI2TAkJFaxP3mg
hMtW/C0EZW0GRRANCoYGihwlY91ZZuGKaUKJnHqfqtZ8Fz8nw6rSwjRRsaFYihY=
-----END CERTIFICATE-----
